Certificate:
    Data:
        Version: 3 (0x2)
        Serial Number: 16515140072400754715 (0xe53190651744181b)
    Signature Algorithm: sha256WithRSAEncryption
        Issuer: C=ES, ST=Galicia, O=Budinho Systems Inc., CN=Budinho Systems CA/emailAddress=budinho.systems@gmail.com
        Validity
            Not Before: Jul 21 18:22:45 2015 GMT
            Not After : Jul 20 18:22:45 2016 GMT
        Subject: C=ES, ST=Galicia, L=ES, O=UDC, OU=UDC TFG alejandro.budino, CN=www.tfg.com
        Subject Public Key Info:
            Public Key Algorithm: rsaEncryption
                Public-Key: (2048 bit)
                Modulus:
                    00:b9:08:26:16:1c:2f:e9:fb:6d:a4:de:f4:7e:86:
                    05:20:cf:cd:ce:b4:f7:14:08:31:58:d6:04:3c:70:
                    e7:4d:77:ac:fa:4f:b1:1a:36:9f:cc:71:1f:9e:43:
                    2f:7b:55:1e:9c:cd:e4:92:c8:97:93:5f:37:66:2e:
                    e3:20:16:d3:34:3e:81:37:64:06:9d:f8:66:fc:74:
                    3c:35:94:17:c1:33:07:d4:5a:ee:4c:08:0a:40:a9:
                    89:77:fa:79:f1:63:aa:ba:f9:a3:52:d2:bf:b4:9f:
                    ae:64:83:06:a8:5c:26:b5:3f:1a:c2:43:49:c3:2f:
                    1b:52:26:98:ff:88:ab:78:dd:7c:38:3c:65:ff:d9:
                    81:ff:41:d8:7f:35:1b:4c:22:28:16:fa:34:ed:b6:
                    33:e6:12:6a:1b:db:92:27:a9:aa:04:ec:3c:68:cd:
                    8c:67:99:ed:02:16:4d:71:e1:0f:1e:bc:7e:e9:ce:
                    32:42:33:2b:95:be:7f:d6:03:eb:83:dc:84:b0:2c:
                    39:50:ea:43:5f:4c:3f:51:f3:d0:c8:02:0a:14:1c:
                    59:5c:69:6c:e8:81:79:1c:59:cb:12:bc:0b:b2:e9:
                    9a:c5:0d:d9:4d:40:53:77:dd:f7:53:e2:97:7c:a5:
                    9b:8e:6d:ab:90:95:ed:a5:00:d9:c2:ad:11:cd:d5:
                    dd:c3
                Exponent: 65537 (0x10001)
        X509v3 extensions:
            X509v3 Basic Constraints: 
                CA:FALSE
            Netscape Comment: 
                OpenSSL Generated Certificate
            X509v3 Subject Key Identifier: 
                56:6B:4C:91:13:05:3D:C3:06:8D:4B:9C:29:F2:63:3C:28:15:09:B3
            X509v3 Authority Key Identifier: 
                keyid:F6:DC:39:1A:0F:D2:D7:52:3B:E3:3D:95:C9:60:97:E1:67:8C:25:A0

    Signature Algorithm: sha256WithRSAEncryption
         83:7e:56:3d:49:5c:ba:70:30:08:f7:68:a3:32:3a:e8:d9:89:
         2e:25:51:00:53:10:89:9e:5f:fa:c6:64:9b:66:f2:06:5c:bc:
         3d:f2:46:4d:fc:a3:48:02:de:39:a7:49:b9:55:79:a9:a0:2e:
         f5:8e:3f:3d:4e:b2:b2:98:74:79:30:e7:51:3b:e7:74:bf:bc:
         91:36:81:32:27:96:b2:21:c5:5d:61:62:2c:f5:fa:92:f4:31:
         71:01:b2:08:9f:93:19:7b:24:6b:96:f2:2b:87:3e:4f:07:23:
         5d:80:47:23:6b:d6:18:d7:0d:59:8c:74:fb:02:dd:6a:97:49:
         ee:40:d9:27:30:f9:d2:2d:bb:75:c6:cf:5b:bf:77:b8:7d:7c:
         bb:bb:00:83:42:68:7a:a8:ad:b4:68:ed:0b:ec:7d:98:19:d1:
         c3:22:82:4f:4d:5a:86:67:78:b5:53:a0:8b:a9:4d:3e:cb:9e:
         35:32:ff:05:26:c5:b3:9b:b4:ae:20:54:a1:fd:df:b2:c1:e6:
         9b:26:ad:7d:b8:83:d4:c5:64:51:ad:5d:f5:ac:c6:ea:0f:b5:
         39:aa:fe:05:55:25:81:da:89:c5:0a:db:75:51:28:2b:42:98:
         f1:99:f4:59:5d:e5:ae:af:b8:31:3a:7b:8e:d3:1f:f3:ae:3a:
         c0:a1:eb:d7
-----BEGIN CERTIFICATE-----
MIID9zCCAt+gAwIBAgIJAOUxkGUXRBgbMA0GCSqGSIb3DQEBCwUAMIGFMQswCQYD
VQQGEwJFUzEQMA4GA1UECAwHR2FsaWNpYTEdMBsGA1UECgwUQnVkaW5obyBTeXN0
ZW1zIEluYy4xGzAZBgNVBAMMEkJ1ZGluaG8gU3lzdGVtcyBDQTEoMCYGCSqGSIb3
DQEJARYZYnVkaW5oby5zeXN0ZW1zQGdtYWlsLmNvbTAeFw0xNTA3MjExODIyNDVa
Fw0xNjA3MjAxODIyNDVaMHMxCzAJBgNVBAYTAkVTMRAwDgYDVQQIDAdHYWxpY2lh
MQswCQYDVQQHDAJFUzEMMAoGA1UECgwDVURDMSEwHwYDVQQLDBhVREMgVEZHIGFs
ZWphbmRyby5idWRpbm8xFDASBgNVBAMMC3d3dy50ZmcuY29tMIIBIjANBgkqhkiG
9w0BAQEFAAOCAQ8AMIIBCgKCAQEAuQgmFhwv6fttpN70foYFIM/NzrT3FAgxWNYE
PHDnTXes+k+xGjafzHEfnkMve1UenM3kksiXk183Zi7jIBbTND6BN2QGnfhm/HQ8
NZQXwTMH1FruTAgKQKmJd/p58WOquvmjUtK/tJ+uZIMGqFwmtT8awkNJwy8bUiaY
/4ireN18ODxl/9mB/0HYfzUbTCIoFvo07bYz5hJqG9uSJ6mqBOw8aM2MZ5ntAhZN
ceEPHrx+6c4yQjMrlb5/1gPrg9yEsCw5UOpDX0w/UfPQyAIKFBxZXGls6IF5HFnL
ErwLsumaxQ3ZTUBTd933U+KXfKWbjm2rkJXtpQDZwq0RzdXdwwIDAQABo3sweTAJ
BgNVHRMEAjAAMCwGCWCGSAGG+EIBDQQfFh1PcGVuU1NMIEdlbmVyYXRlZCBDZXJ0
aWZpY2F0ZTAdBgNVHQ4EFgQUVmtMkRMFPcMGjUucKfJjPCgVCbMwHwYDVR0jBBgw
FoAU9tw5Gg/S11I74z2VyWCX4WeMJaAwDQYJKoZIhvcNAQELBQADggEBAIN+Vj1J
XLpwMAj3aKMyOujZiS4lUQBTEImeX/rGZJtm8gZcvD3yRk38o0gC3jmnSblVeamg
LvWOPz1OsrKYdHkw51E753S/vJE2gTInlrIhxV1hYiz1+pL0MXEBsgifkxl7JGuW
8iuHPk8HI12ARyNr1hjXDVmMdPsC3WqXSe5A2Scw+dItu3XGz1u/d7h9fLu7AINC
aHqorbRo7QvsfZgZ0cMigk9NWoZneLVToIupTT7LnjUy/wUmxbObtK4gVKH937LB
5psmrX24g9TFZFGtXfWsxuoPtTmq/gVVJYHaicUK23VRKCtCmPGZ9Fld5a6vuDE6
e47TH/OuOsCh69c=
-----END CERTIFICATE-----
