Certificate:
    Data:
        Version: 3 (0x2)
        Serial Number: 16515140072400754718 (0xe53190651744181e)
    Signature Algorithm: sha256WithRSAEncryption
        Issuer: C=ES, ST=Galicia, O=Budinho Systems Inc., CN=Budinho Systems CA/emailAddress=budinho.systems@gmail.com
        Validity
            Not Before: Aug 23 12:19:57 2015 GMT
            Not After : Aug 22 12:19:57 2016 GMT
        Subject: C=ES, ST=Coru\xC3\x83\xC2\xB1a, L=A Coru\xC3\x83\xC2\xB1a, O=UDC, OU=FIC, CN=tfgudc.no-ip.org
        Subject Public Key Info:
            Public Key Algorithm: rsaEncryption
                Public-Key: (2048 bit)
                Modulus:
                    00:dc:9f:ee:6c:a0:4a:47:63:c9:1b:f8:04:fb:57:
                    4d:ae:73:3d:7a:f0:10:fe:81:6a:a4:f0:ac:54:8a:
                    47:d3:eb:5a:6a:cc:64:d4:9f:4c:58:c1:62:16:9c:
                    ed:14:2f:04:6b:e7:2e:a5:f9:48:00:e3:f1:e1:8a:
                    74:db:be:5c:82:ef:7a:5c:37:1f:55:07:11:e1:8a:
                    25:e8:54:4a:50:45:e3:e9:02:a8:7f:4b:72:67:62:
                    d2:da:60:16:91:0b:77:13:06:36:55:ae:4c:f2:64:
                    72:31:48:88:56:44:90:bb:42:e3:78:d0:4c:43:ec:
                    0e:3c:c6:76:69:c6:8d:3f:3d:e0:9d:b8:ae:13:64:
                    45:28:85:96:e5:b8:e0:6d:90:1f:48:ee:8b:c1:c7:
                    92:b3:b7:01:03:43:e2:35:e6:77:6b:f6:15:0d:79:
                    23:2c:4a:0c:e7:3f:5e:87:a3:4a:da:11:93:f5:02:
                    3d:ab:05:7c:64:90:37:cb:da:1e:93:82:af:5f:6c:
                    50:1d:d5:1a:b5:1f:62:8d:1d:8b:df:eb:13:53:79:
                    a0:ca:7e:a3:dd:90:3b:83:46:c5:67:85:92:01:c4:
                    c6:b5:f7:dc:0e:51:2b:1e:70:b8:f5:80:11:09:ad:
                    2f:2c:87:ce:cc:97:77:2b:38:44:b3:38:72:71:b6:
                    db:fd
                Exponent: 65537 (0x10001)
        X509v3 extensions:
            X509v3 Basic Constraints: 
                CA:FALSE
            Netscape Comment: 
                OpenSSL Generated Certificate
            X509v3 Subject Key Identifier: 
                32:2F:E0:57:62:85:15:CA:F6:8F:C2:6F:CA:03:74:A4:11:7D:12:2D
            X509v3 Authority Key Identifier: 
                keyid:F6:DC:39:1A:0F:D2:D7:52:3B:E3:3D:95:C9:60:97:E1:67:8C:25:A0

    Signature Algorithm: sha256WithRSAEncryption
         0d:81:e3:d1:48:05:e6:9f:a5:08:3c:a5:bb:ad:d3:cc:db:78:
         50:55:67:a5:06:20:15:4c:dd:99:5c:5e:f0:3e:4d:0d:5f:df:
         b5:ca:ef:d1:03:92:7b:61:11:ba:88:0b:72:c9:a4:c1:2c:c4:
         c9:4b:25:43:f2:82:ed:07:6f:f1:b2:8d:9e:f4:d6:40:a6:62:
         43:85:d1:72:a2:82:4e:26:45:fe:25:5f:21:38:0c:39:c5:54:
         19:9a:ae:d3:59:45:27:21:5d:ff:eb:18:83:3a:0f:1a:95:79:
         40:87:49:fb:64:e6:8c:94:39:91:c4:84:9f:58:1f:68:82:b8:
         6a:52:58:1a:59:6d:59:7d:bf:cf:5d:0e:7e:50:c0:0e:68:ee:
         8a:02:f9:8f:f4:04:f9:49:1a:6b:ab:7b:eb:63:bc:1a:4a:2d:
         37:19:63:99:64:df:4a:45:8c:0d:26:6e:27:d7:3c:11:fb:3e:
         bf:a4:98:e1:96:8b:72:e7:1d:6a:db:88:ba:f7:d2:79:05:65:
         76:e7:bb:1c:6c:67:c8:1b:c9:65:aa:25:51:b5:9a:b6:04:c6:
         af:4b:f6:fe:11:c8:ff:9d:e2:e9:3e:4b:0d:09:82:aa:d5:cb:
         db:70:1e:6b:87:cd:c9:59:16:92:ce:4c:34:27:1d:22:db:7c:
         15:61:c2:16
-----BEGIN CERTIFICATE-----
MIID8jCCAtqgAwIBAgIJAOUxkGUXRBgeMA0GCSqGSIb3DQEBCwUAMIGFMQswCQYD
VQQGEwJFUzEQMA4GA1UECAwHR2FsaWNpYTEdMBsGA1UECgwUQnVkaW5obyBTeXN0
ZW1zIEluYy4xGzAZBgNVBAMMEkJ1ZGluaG8gU3lzdGVtcyBDQTEoMCYGCSqGSIb3
DQEJARYZYnVkaW5oby5zeXN0ZW1zQGdtYWlsLmNvbTAeFw0xNTA4MjMxMjE5NTda
Fw0xNjA4MjIxMjE5NTdaMG4xCzAJBgNVBAYTAkVTMRIwEAYDVQQIDAlDb3J1w4PC
sWExFDASBgNVBAcMC0EgQ29ydcODwrFhMQwwCgYDVQQKDANVREMxDDAKBgNVBAsM
A0ZJQzEZMBcGA1UEAwwQdGZndWRjLm5vLWlwLm9yZzCCASIwDQYJKoZIhvcNAQEB
BQADggEPADCCAQoCggEBANyf7mygSkdjyRv4BPtXTa5zPXrwEP6BaqTwrFSKR9Pr
WmrMZNSfTFjBYhac7RQvBGvnLqX5SADj8eGKdNu+XILvelw3H1UHEeGKJehUSlBF
4+kCqH9Lcmdi0tpgFpELdxMGNlWuTPJkcjFIiFZEkLtC43jQTEPsDjzGdmnGjT89
4J24rhNkRSiFluW44G2QH0jui8HHkrO3AQND4jXmd2v2FQ15IyxKDOc/XoejStoR
k/UCPasFfGSQN8vaHpOCr19sUB3VGrUfYo0di9/rE1N5oMp+o92QO4NGxWeFkgHE
xrX33A5RKx5wuPWAEQmtLyyHzsyXdys4RLM4cnG22/0CAwEAAaN7MHkwCQYDVR0T
BAIwADAsBglghkgBhvhCAQ0EHxYdT3BlblNTTCBHZW5lcmF0ZWQgQ2VydGlmaWNh
dGUwHQYDVR0OBBYEFDIv4FdihRXK9o/Cb8oDdKQRfRItMB8GA1UdIwQYMBaAFPbc
ORoP0tdSO+M9lclgl+FnjCWgMA0GCSqGSIb3DQEBCwUAA4IBAQANgePRSAXmn6UI
PKW7rdPM23hQVWelBiAVTN2ZXF7wPk0NX9+1yu/RA5J7YRG6iAtyyaTBLMTJSyVD
8oLtB2/xso2e9NZApmJDhdFyooJOJkX+JV8hOAw5xVQZmq7TWUUnIV3/6xiDOg8a
lXlAh0n7ZOaMlDmRxISfWB9ogrhqUlgaWW1Zfb/PXQ5+UMAOaO6KAvmP9AT5SRpr
q3vrY7waSi03GWOZZN9KRYwNJm4n1zwR+z6/pJjhloty5x1q24i699J5BWV257sc
bGfIG8llqiVRtZq2BMavS/b+Ecj/neLpPksNCYKq1cvbcB5rh83JWRaSzkw0Jx0i
23wVYcIW
-----END CERTIFICATE-----
